target datalayout = "e-m:e-p270:32:32-p271:32:32-p272:64:64-i64:64-i128:128-f80:128-n8:16:32:64-S128"
target triple = "x86_64-pc-linux-gnu"

%struct.siginfo_t = type { i32, i32, i32, i32, %union.anon }
%union.anon = type { %struct.anon.2, [80 x i8] }
%struct.anon.2 = type { i32, i32, i32, i64, i64 }
%struct.ucontext_t = type { i64, ptr, %struct.stack_t, %struct.mcontext_t, %struct.__sigset_t, %struct._libc_fpstate, [4 x i64] }
%struct.stack_t = type { ptr, i32, i64 }
%struct.mcontext_t = type { [23 x i64], ptr, [8 x i64] }
%struct.__sigset_t = type { [16 x i64] }
%struct._libc_fpstate = type { i16, i16, i16, i16, i64, i64, i32, i32, [8 x %struct._libc_fpxreg], [16 x %struct._libc_xmmreg], [24 x i32] }
%struct._libc_fpxreg = type { [4 x i16], i16, [3 x i16] }
%struct._libc_xmmreg = type { [4 x i32] }

@_ZN7Iex_3_412_GLOBAL__N_110fpeHandlerE = internal global ptr null, align 8
@.str = private unnamed_addr constant [72 x i8] c"Floating-point exception, caused by a signal sent from another process.\00", align 1
@.str.1 = private unnamed_addr constant [33 x i8] c"Floating-point division by zero.\00", align 1
@.str.2 = private unnamed_addr constant [25 x i8] c"Floating-point overflow.\00", align 1
@.str.3 = private unnamed_addr constant [26 x i8] c"Floating-point underflow.\00", align 1
@.str.4 = private unnamed_addr constant [31 x i8] c"Inexact floating-point result.\00", align 1
@.str.5 = private unnamed_addr constant [34 x i8] c"Invalid floating-point operation.\00", align 1
@.str.6 = private unnamed_addr constant [26 x i8] c"Integer division by zero.\00", align 1
@.str.7 = private unnamed_addr constant [18 x i8] c"Integer overflow.\00", align 1
@.str.8 = private unnamed_addr constant [24 x i8] c"Subscript out of range.\00", align 1
@.str.9 = private unnamed_addr constant [26 x i8] c"Floating-point exception.\00", align 1

; Function Attrs: inlinehint mustprogress nounwind uwtable
define internal void @_ZN7Iex_3_410FpuControlL8setMxcsrEjb(i32 noundef %0, i1 noundef zeroext %1) #6 {
  %3 = alloca i32, align 4
  %4 = alloca i8, align 1
  store i32 %0, ptr %3, align 4, !tbaa !3
  %5 = zext i1 %1 to i8
  store i8 %5, ptr %4, align 1, !tbaa !15
  %6 = load i8, ptr %4, align 1, !tbaa !15, !range !28, !noundef !29
  %7 = trunc i8 %6 to i1
  %8 = select i1 %7, i32 -64, i32 -1
  %9 = load i32, ptr %3, align 4, !tbaa !3
  %10 = and i32 %9, %8
  store i32 %10, ptr %3, align 4, !tbaa !3
  call void asm sideeffect "ldmxcsr $0", "*m,~{dirflag},~{fpsr},~{flags}"(ptr elementtype(i32) %3) #3, !srcloc !38
  ret void
}

; Function Attrs: inlinehint mustprogress nounwind uwtable
define internal void @_ZN7Iex_3_410FpuControlL5setCwEt(i16 noundef zeroext %0) #6 {
  %2 = alloca i16, align 2
  store i16 %0, ptr %2, align 2, !tbaa !32
  call void asm sideeffect "fldcw $0", "*m,~{dirflag},~{fpsr},~{flags}"(ptr elementtype(i16) %2) #3, !srcloc !37
  ret void
}

; Function Attrs: inlinehint mustprogress uwtable
define linkonce_odr hidden void @_ZN7Iex_3_410FpuControl18restoreControlRegsERK10ucontext_tb(ptr noundef nonnull align 8 dereferenceable(968) %0, i1 noundef zeroext %1) #7 comdat {
  %3 = alloca ptr, align 8
  %4 = alloca i8, align 1
  store ptr %0, ptr %3, align 8, !tbaa !11
  %5 = zext i1 %1 to i8
  store i8 %5, ptr %4, align 1, !tbaa !15
  %6 = load ptr, ptr %3, align 8, !tbaa !11
  %7 = getelementptr inbounds nuw %struct.ucontext_t, ptr %6, i32 0, i32 3
  %8 = getelementptr inbounds nuw %struct.mcontext_t, ptr %7, i32 0, i32 1
  %9 = load ptr, ptr %8, align 8, !tbaa !17
  %10 = getelementptr inbounds nuw %struct._libc_fpstate, ptr %9, i32 0, i32 0
  %11 = load i16, ptr %10, align 8, !tbaa !26
  %12 = zext i16 %11 to i32
  %13 = and i32 %12, 61695
  %14 = or i32 %13, 768
  %15 = trunc i32 %14 to i16
  call void @_ZN7Iex_3_410FpuControlL5setCwEt(i16 noundef zeroext %15)
  %16 = load ptr, ptr %3, align 8, !tbaa !11
  %17 = getelementptr inbounds nuw %struct.ucontext_t, ptr %16, i32 0, i32 3
  %18 = getelementptr inbounds nuw %struct.mcontext_t, ptr %17, i32 0, i32 1
  %19 = load ptr, ptr %18, align 8, !tbaa !17
  %20 = getelementptr inbounds nuw %struct._libc_fpstate, ptr %19, i32 0, i32 6
  %21 = load i32, ptr %20, align 8, !tbaa !27
  %22 = load i8, ptr %4, align 1, !tbaa !15, !range !28, !noundef !29
  %23 = trunc i8 %22 to i1
  call void @_ZN7Iex_3_410FpuControlL8setMxcsrEjb(i32 noundef %21, i1 noundef zeroext %23)
  ret void
}

; Function Attrs: mustprogress uwtable
define hidden void @catchSigFpe(i32 noundef %0, ptr noundef %1, ptr noundef %2) #4 {
  %4 = alloca i32, align 4
  %5 = alloca ptr, align 8
  %6 = alloca ptr, align 8
  store i32 %0, ptr %4, align 4, !tbaa !3
  store ptr %1, ptr %5, align 8, !tbaa !9
  store ptr %2, ptr %6, align 8, !tbaa !11
  %7 = load ptr, ptr %6, align 8, !tbaa !11
  call void @_ZN7Iex_3_410FpuControl18restoreControlRegsERK10ucontext_tb(ptr noundef nonnull align 8 dereferenceable(968) %7, i1 noundef zeroext true)
  %8 = load volatile ptr, ptr @_ZN7Iex_3_412_GLOBAL__N_110fpeHandlerE, align 8, !tbaa !9
  %9 = icmp eq ptr %8, null
  br i1 %9, label %10, label %11

10:                                               ; preds = %3
  br label %44

11:                                               ; preds = %3
  %12 = load ptr, ptr %5, align 8, !tbaa !9
  %13 = getelementptr inbounds nuw %struct.siginfo_t, ptr %12, i32 0, i32 2
  %14 = load i32, ptr %13, align 8, !tbaa !13
  %15 = icmp eq i32 %14, 0
  br i1 %15, label %16, label %18

16:                                               ; preds = %11
  %17 = load volatile ptr, ptr @_ZN7Iex_3_412_GLOBAL__N_110fpeHandlerE, align 8, !tbaa !9
  call void %17(i32 noundef 0, ptr noundef @.str)
  br label %44

18:                                               ; preds = %11
  %19 = load i32, ptr %4, align 4, !tbaa !3
  %20 = icmp eq i32 %19, 8
  br i1 %20, label %21, label %42

21:                                               ; preds = %18
  %22 = load ptr, ptr %5, align 8, !tbaa !9
  %23 = getelementptr inbounds nuw %struct.siginfo_t, ptr %22, i32 0, i32 2
  %24 = load i32, ptr %23, align 8, !tbaa !13
  switch i32 %24, label %41 [
    i32 3, label %25
    i32 4, label %27
    i32 5, label %29
    i32 6, label %31
    i32 7, label %33
    i32 1, label %35
    i32 2, label %37
    i32 8, label %39
  ]

25:                                               ; preds = %21
  %26 = load volatile ptr, ptr @_ZN7Iex_3_412_GLOBAL__N_110fpeHandlerE, align 8, !tbaa !9
  call void %26(i32 noundef 4, ptr noundef @.str.1)
  br label %44

27:                                               ; preds = %21
  %28 = load volatile ptr, ptr @_ZN7Iex_3_412_GLOBAL__N_110fpeHandlerE, align 8, !tbaa !9
  call void %28(i32 noundef 1, ptr noundef @.str.2)
  br label %44

29:                                               ; preds = %21
  %30 = load volatile ptr, ptr @_ZN7Iex_3_412_GLOBAL__N_110fpeHandlerE, align 8, !tbaa !9
  call void %30(i32 noundef 2, ptr noundef @.str.3)
  br label %44

31:                                               ; preds = %21
  %32 = load volatile ptr, ptr @_ZN7Iex_3_412_GLOBAL__N_110fpeHandlerE, align 8, !tbaa !9
  call void %32(i32 noundef 8, ptr noundef @.str.4)
  br label %44

33:                                               ; preds = %21
  %34 = load volatile ptr, ptr @_ZN7Iex_3_412_GLOBAL__N_110fpeHandlerE, align 8, !tbaa !9
  call void %34(i32 noundef 16, ptr noundef @.str.5)
  br label %44

35:                                               ; preds = %21
  %36 = load volatile ptr, ptr @_ZN7Iex_3_412_GLOBAL__N_110fpeHandlerE, align 8, !tbaa !9
  call void %36(i32 noundef 0, ptr noundef @.str.6)
  br label %41

37:                                               ; preds = %21
  %38 = load volatile ptr, ptr @_ZN7Iex_3_412_GLOBAL__N_110fpeHandlerE, align 8, !tbaa !9
  call void %38(i32 noundef 0, ptr noundef @.str.7)
  br label %41

39:                                               ; preds = %21
  %40 = load volatile ptr, ptr @_ZN7Iex_3_412_GLOBAL__N_110fpeHandlerE, align 8, !tbaa !9
  call void %40(i32 noundef 0, ptr noundef @.str.8)
  br label %41

41:                                               ; preds = %21, %39, %37, %35
  br label %42

42:                                               ; preds = %41, %18
  %43 = load volatile ptr, ptr @_ZN7Iex_3_412_GLOBAL__N_110fpeHandlerE, align 8, !tbaa !9
  call void %43(i32 noundef 0, ptr noundef @.str.9)
  br label %44

44:                                               ; preds = %42, %33, %31, %29, %27, %25, %16, %10
  ret void
}