; Function Attrs: mustprogress uwtable
define hidden void @catchSigFpe(i32 noundef %0, ptr noundef readonly captures(none) %1, ptr noundef readonly captures(none) %2) #3 {
  %4 = alloca i32, align 4
  %5 = alloca i16, align 2
  %6 = getelementptr inbounds nuw i8, ptr %2, i64 224
  %7 = load ptr, ptr %6, align 8, !tbaa !9
  %8 = load i16, ptr %7, align 8, !tbaa !20
  %9 = and i16 %8, -3841
  %10 = or disjoint i16 %9, 768
  call void @llvm.lifetime.start.p0(i64 2, ptr nonnull %5)
  store i16 %10, ptr %5, align 2, !tbaa !21
  call void asm sideeffect "fldcw $0", "*m,~{dirflag},~{fpsr},~{flags}"(ptr nonnull elementtype(i16) %5) #7, !srcloc !22
  call void @llvm.lifetime.end.p0(i64 2, ptr nonnull %5)
  %11 = load ptr, ptr %6, align 8, !tbaa !9
  %12 = getelementptr inbounds nuw i8, ptr %11, i64 24
  %13 = load i32, ptr %12, align 8, !tbaa !23
  call void @llvm.lifetime.start.p0(i64 4, ptr nonnull %4)
  %14 = and i32 %13, -64
  store i32 %14, ptr %4, align 4, !tbaa !4
  call void asm sideeffect "ldmxcsr $0", "*m,~{dirflag},~{fpsr},~{flags}"(ptr nonnull elementtype(i32) %4) #7, !srcloc !24
  call void @llvm.lifetime.end.p0(i64 4, ptr nonnull %4)
  %15 = load volatile ptr, ptr @_ZN7Iex_3_412_GLOBAL__N_110fpeHandlerE, align 8, !tbaa !25
  %16 = icmp eq ptr %15, null
  br i1 %16, label %41, label %17

17:                                               ; preds = %3
  %18 = getelementptr inbounds nuw i8, ptr %1, i64 8
  %19 = load i32, ptr %18, align 8, !tbaa !26
  %20 = icmp eq i32 %19, 0
  br i1 %20, label %21, label %23

21:                                               ; preds = %17
  %22 = load volatile ptr, ptr @_ZN7Iex_3_412_GLOBAL__N_110fpeHandlerE, align 8, !tbaa !25
  call void %22(i32 noundef 0, ptr noundef nonnull @.str)
  br label %41

23:                                               ; preds = %17
  %24 = icmp eq i32 %0, 8
  br i1 %24, label %25, label %39

25:                                               ; preds = %23
  switch i32 %19, label %39 [
    i32 3, label %26
    i32 4, label %28
    i32 5, label %30
    i32 6, label %32
    i32 7, label %34
    i32 1, label %.sink.split
    i32 2, label %36
    i32 8, label %37
  ]

26:                                               ; preds = %25
  %27 = load volatile ptr, ptr @_ZN7Iex_3_412_GLOBAL__N_110fpeHandlerE, align 8, !tbaa !25
  call void %27(i32 noundef 4, ptr noundef nonnull @.str.1)
  br label %41

28:                                               ; preds = %25
  %29 = load volatile ptr, ptr @_ZN7Iex_3_412_GLOBAL__N_110fpeHandlerE, align 8, !tbaa !25
  call void %29(i32 noundef 1, ptr noundef nonnull @.str.2)
  br label %41

30:                                               ; preds = %25
  %31 = load volatile ptr, ptr @_ZN7Iex_3_412_GLOBAL__N_110fpeHandlerE, align 8, !tbaa !25
  call void %31(i32 noundef 2, ptr noundef nonnull @.str.3)
  br label %41

32:                                               ; preds = %25
  %33 = load volatile ptr, ptr @_ZN7Iex_3_412_GLOBAL__N_110fpeHandlerE, align 8, !tbaa !25
  call void %33(i32 noundef 8, ptr noundef nonnull @.str.4)
  br label %41

34:                                               ; preds = %25
  %35 = load volatile ptr, ptr @_ZN7Iex_3_412_GLOBAL__N_110fpeHandlerE, align 8, !tbaa !25
  call void %35(i32 noundef 16, ptr noundef nonnull @.str.5)
  br label %41

36:                                               ; preds = %25
  br label %.sink.split

37:                                               ; preds = %25
  br label %.sink.split

.sink.split:                                      ; preds = %25, %37, %36
  %.str.6.sink = phi ptr [ @.str.7, %36 ], [ @.str.8, %37 ], [ @.str.6, %25 ]
  %38 = load volatile ptr, ptr @_ZN7Iex_3_412_GLOBAL__N_110fpeHandlerE, align 8, !tbaa !25
  call void %38(i32 noundef 0, ptr noundef nonnull %.str.6.sink)
  br label %39

39:                                               ; preds = %.sink.split, %25, %23
  %40 = load volatile ptr, ptr @_ZN7Iex_3_412_GLOBAL__N_110fpeHandlerE, align 8, !tbaa !25
  call void %40(i32 noundef 0, ptr noundef nonnull @.str.9)
  br label %41

41:                                               ; preds = %3, %39, %34, %32, %30, %28, %26, %21
  ret void
}